; Function Attrs: nofree norecurse nosync nounwind memory(argmem: readwrite) uwtable
define dso_local i32 @LZ4_uncompress(ptr noundef %0, ptr noundef %1, i32 noundef %2) local_unnamed_addr #10 {
  %4 = sext i32 %2 to i64
  %5 = getelementptr inbounds i8, ptr %1, i64 %4
  %6 = ptrtoint ptr %5 to i64
  %7 = ptrtoint ptr %1 to i64
  br label %.thread.i

.thread.i:                                        ; preds = %._crit_edge.i, %3
  %.0.i = phi ptr [ %0, %3 ], [ %.4.i, %._crit_edge.i ]
  %.080.i.i = phi ptr [ %1, %3 ], [ %57, %._crit_edge.i ]
  %8 = getelementptr inbounds nuw i8, ptr %.0.i, i64 1
  %9 = load i8, ptr %.0.i, align 1, !tbaa !4
  %10 = zext i8 %9 to i32
  %11 = lshr i32 %10, 4
  %12 = zext nneg i32 %11 to i64
  %13 = icmp eq i32 %11, 15
  br i1 %13, label %.preheader34.i, label %21

.preheader34.i:                                   ; preds = %.thread.i, %.preheader34.i
  %14 = phi ptr [ %17, %.preheader34.i ], [ %8, %.thread.i ]
  %.0.i2.i = phi i64 [ %18, %.preheader34.i ], [ 0, %.thread.i ]
  %15 = load i8, ptr %14, align 1, !tbaa !4
  %16 = zext i8 %15 to i64
  %17 = getelementptr inbounds nuw i8, ptr %14, i64 1
  %18 = add i64 %.0.i2.i, %16
  %19 = icmp eq i8 %15, -1
  br i1 %19, label %.preheader34.i, label %read_long_length_no_check.exit.i, !llvm.loop !47

read_long_length_no_check.exit.i:                 ; preds = %.preheader34.i
  %20 = add i64 %18, 15
  br label %21

21:                                               ; preds = %read_long_length_no_check.exit.i, %.thread.i
  %.1.i = phi ptr [ %17, %read_long_length_no_check.exit.i ], [ %8, %.thread.i ]
  %.086.i.i = phi i64 [ %20, %read_long_length_no_check.exit.i ], [ %12, %.thread.i ]
  %22 = ptrtoint ptr %.080.i.i to i64
  %23 = sub i64 %6, %22
  %24 = icmp ult i64 %23, %.086.i.i
  br i1 %24, label %LZ4_decompress_fast.exit, label %25

25:                                               ; preds = %21
  tail call void @llvm.memmove.p0.p0.i64(ptr align 1 %.080.i.i, ptr nonnull align 1 %.1.i, i64 %.086.i.i, i1 false)
  %26 = getelementptr inbounds nuw i8, ptr %.080.i.i, i64 %.086.i.i
  %27 = getelementptr inbounds nuw i8, ptr %.1.i, i64 %.086.i.i
  %28 = ptrtoint ptr %26 to i64
  %29 = sub i64 %6, %28
  %30 = icmp ult i64 %29, 12
  br i1 %30, label %31, label %33

31:                                               ; preds = %25
  %32 = icmp eq ptr %26, %5
  br i1 %32, label %61, label %LZ4_decompress_fast.exit

33:                                               ; preds = %25
  %34 = and i32 %10, 15
  %35 = zext nneg i32 %34 to i64
  %.val.i = load i16, ptr %27, align 1, !tbaa !23
  %36 = zext i16 %.val.i to i64
  %37 = getelementptr inbounds nuw i8, ptr %27, i64 2
  %38 = icmp eq i32 %34, 15
  br i1 %38, label %.preheader.i, label %46

.preheader.i:                                     ; preds = %33, %.preheader.i
  %39 = phi ptr [ %42, %.preheader.i ], [ %37, %33 ]
  %.0.i4.i = phi i64 [ %43, %.preheader.i ], [ 0, %33 ]
  %40 = load i8, ptr %39, align 1, !tbaa !4
  %41 = zext i8 %40 to i64
  %42 = getelementptr inbounds nuw i8, ptr %39, i64 1
  %43 = add i64 %.0.i4.i, %41
  %44 = icmp eq i8 %40, -1
  br i1 %44, label %.preheader.i, label %read_long_length_no_check.exit5.i, !llvm.loop !47

read_long_length_no_check.exit5.i:                ; preds = %.preheader.i
  %45 = add i64 %43, 15
  br label %46

46:                                               ; preds = %read_long_length_no_check.exit5.i, %33
  %.4.i = phi ptr [ %42, %read_long_length_no_check.exit5.i ], [ %37, %33 ]
  %.092.i.i = phi i64 [ %45, %read_long_length_no_check.exit5.i ], [ %35, %33 ]
  %47 = add i64 %.092.i.i, 4
  %48 = icmp ult i64 %29, %47
  %49 = sub i64 %28, %7
  %.not.i.i = icmp ult i64 %49, %36
  %or.cond.i = select i1 %48, i1 true, i1 %.not.i.i
  br i1 %or.cond.i, label %LZ4_decompress_fast.exit, label %50

50:                                               ; preds = %46
  %51 = sub nsw i64 0, %36
  %52 = getelementptr inbounds i8, ptr %26, i64 %51
  %.not.i = icmp eq i64 %47, 0
  br i1 %.not.i, label %._crit_edge.i, label %.lr.ph.i

.lr.ph.i:                                         ; preds = %50, %.lr.ph.i
  %.0.i40.i = phi i64 [ %56, %.lr.ph.i ], [ 0, %50 ]
  %53 = getelementptr inbounds nuw i8, ptr %52, i64 %.0.i40.i
  %54 = load i8, ptr %53, align 1, !tbaa !4
  %55 = getelementptr inbounds nuw i8, ptr %26, i64 %.0.i40.i
  store i8 %54, ptr %55, align 1, !tbaa !4
  %56 = add nuw i64 %.0.i40.i, 1
  %exitcond.not.i = icmp eq i64 %56, %47
  br i1 %exitcond.not.i, label %._crit_edge.i, label %.lr.ph.i, !llvm.loop !48

._crit_edge.i:                                    ; preds = %.lr.ph.i, %50
  %57 = getelementptr inbounds nuw i8, ptr %26, i64 %47
  %58 = ptrtoint ptr %57 to i64
  %59 = sub i64 %6, %58
  %60 = icmp ult i64 %59, 5
  br i1 %60, label %LZ4_decompress_fast.exit, label %.thread.i

61:                                               ; preds = %31
  %62 = ptrtoint ptr %27 to i64
  %63 = ptrtoint ptr %0 to i64
  %64 = sub i64 %62, %63
  %65 = trunc i64 %64 to i32
  br label %LZ4_decompress_fast.exit

LZ4_decompress_fast.exit:                         ; preds = %21, %46, %._crit_edge.i, %31, %61
  %.5.i.i = phi i32 [ %65, %61 ], [ -1, %31 ], [ -1, %._crit_edge.i ], [ -1, %46 ], [ -1, %21 ]
  ret i32 %.5.i.i
}